; Function Attrs: nounwind uwtable
define internal i32 @reserve_loader_store(ptr noundef %0, ptr noundef readonly captures(none) %1) #2 {
  %3 = icmp eq ptr %0, null
  br i1 %3, label %4, label %8

4:                                                ; preds = %2
  %5 = load ptr, ptr %1, align 8, !tbaa !13
  %6 = tail call ptr @ossl_lib_ctx_get_data(ptr noundef %5, i32 noundef 15) #6
  %7 = icmp eq ptr %6, null
  br i1 %7, label %10, label %8

8:                                                ; preds = %4, %2
  %.04 = phi ptr [ %6, %4 ], [ %0, %2 ]
  %9 = tail call i32 @ossl_method_lock_store(ptr noundef nonnull %.04) #6
  br label %10

10:                                               ; preds = %4, %8
  %.0 = phi i32 [ %9, %8 ], [ 0, %4 ]
  ret i32 %.0
}